target datalayout = "e-m:e-p270:32:32-p271:32:32-p272:64:64-i64:64-i128:128-f80:128-n8:16:32:64-S128"
target triple = "x86_64-pc-linux-gnu"

%struct.AVChannelLayout = type { i32, i32, %union.anon.1, ptr }
%union.anon.1 = type { i64 }
%struct.AVRational = type { i32, i32 }
%struct.AVFrame = type { [8 x ptr], [8 x i32], ptr, i32, i32, i32, i32, i32, %struct.AVRational, i64, i64, %struct.AVRational, i32, ptr, i32, i32, [8 x ptr], ptr, i32, ptr, i32, i32, i32, i32, i32, i32, i32, i64, ptr, i32, ptr, ptr, i64, i64, i64, i64, ptr, %struct.AVChannelLayout, i64 }

@avpriv_cga_font = external constant [2048 x i8], align 16

; Function Attrs: nounwind uwtable
define internal void @draw_vtext16(ptr noundef %0, i32 noundef %1, i32 noundef %2, i32 noundef %3, float noundef %4, float noundef %5, ptr noundef %6, ptr noundef %7) #1 {
  %9 = alloca ptr, align 8
  %10 = alloca i32, align 4
  %11 = alloca i32, align 4
  %12 = alloca i32, align 4
  %13 = alloca float, align 4
  %14 = alloca float, align 4
  %15 = alloca ptr, align 8
  %16 = alloca ptr, align 8
  %17 = alloca ptr, align 8
  %18 = alloca i32, align 4
  %19 = alloca i32, align 4
  %20 = alloca i32, align 4
  %21 = alloca i32, align 4
  %22 = alloca i32, align 4
  %23 = alloca i32, align 4
  %24 = alloca ptr, align 8
  store ptr %0, ptr %9, align 8, !tbaa !61
  store i32 %1, ptr %10, align 4, !tbaa !47
  store i32 %2, ptr %11, align 4, !tbaa !47
  store i32 %3, ptr %12, align 4, !tbaa !47
  store float %4, ptr %13, align 4, !tbaa !69
  store float %5, ptr %14, align 4, !tbaa !69
  store ptr %6, ptr %15, align 8, !tbaa !77
  store ptr %7, ptr %16, align 8, !tbaa !77
  call void @llvm.lifetime.start.p0(i64 8, ptr %17) #10
  call void @llvm.lifetime.start.p0(i64 4, ptr %18) #10
  call void @llvm.lifetime.start.p0(i64 4, ptr %19) #10
  call void @llvm.lifetime.start.p0(i64 4, ptr %20) #10
  store ptr @avpriv_cga_font, ptr %17, align 8, !tbaa !77
  store i32 8, ptr %18, align 4, !tbaa !47
  store i32 0, ptr %20, align 4, !tbaa !47
  br label %25

25:                                               ; preds = %149, %8
  %26 = load i32, ptr %20, align 4, !tbaa !47
  %27 = icmp slt i32 %26, 4
  br i1 %27, label %28, label %36

28:                                               ; preds = %25
  %29 = load ptr, ptr %9, align 8, !tbaa !61
  %30 = getelementptr inbounds nuw %struct.AVFrame, ptr %29, i32 0, i32 0
  %31 = load i32, ptr %20, align 4, !tbaa !47
  %32 = sext i32 %31 to i64
  %33 = getelementptr inbounds [8 x ptr], ptr %30, i64 0, i64 %32
  %34 = load ptr, ptr %33, align 8, !tbaa !77
  %35 = icmp ne ptr %34, null
  br label %36

36:                                               ; preds = %28, %25
  %37 = phi i1 [ false, %25 ], [ %35, %28 ]
  br i1 %37, label %38, label %152

38:                                               ; preds = %36
  store i32 0, ptr %19, align 4, !tbaa !47
  br label %39

39:                                               ; preds = %145, %38
  %40 = load ptr, ptr %15, align 8, !tbaa !77
  %41 = load i32, ptr %19, align 4, !tbaa !47
  %42 = sext i32 %41 to i64
  %43 = getelementptr inbounds i8, ptr %40, i64 %42
  %44 = load i8, ptr %43, align 1, !tbaa !68
  %45 = icmp ne i8 %44, 0
  br i1 %45, label %46, label %148

46:                                               ; preds = %39
  call void @llvm.lifetime.start.p0(i64 4, ptr %21) #10
  call void @llvm.lifetime.start.p0(i64 4, ptr %22) #10
  call void @llvm.lifetime.start.p0(i64 4, ptr %23) #10
  %47 = load ptr, ptr %16, align 8, !tbaa !77
  %48 = load i32, ptr %20, align 4, !tbaa !47
  %49 = sext i32 %48 to i64
  %50 = getelementptr inbounds i8, ptr %47, i64 %49
  %51 = load i8, ptr %50, align 1, !tbaa !68
  %52 = zext i8 %51 to i32
  %53 = load i32, ptr %12, align 4, !tbaa !47
  %54 = mul nsw i32 %52, %53
  store i32 %54, ptr %23, align 4, !tbaa !47
  store i32 0, ptr %21, align 4, !tbaa !47
  br label %55

55:                                               ; preds = %141, %46
  %56 = load i32, ptr %21, align 4, !tbaa !47
  %57 = load i32, ptr %18, align 4, !tbaa !47
  %58 = icmp slt i32 %56, %57
  br i1 %58, label %59, label %144

59:                                               ; preds = %55
  call void @llvm.lifetime.start.p0(i64 8, ptr %24) #10
  %60 = load ptr, ptr %9, align 8, !tbaa !61
  %61 = getelementptr inbounds nuw %struct.AVFrame, ptr %60, i32 0, i32 0
  %62 = load i32, ptr %20, align 4, !tbaa !47
  %63 = sext i32 %62 to i64
  %64 = getelementptr inbounds [8 x ptr], ptr %61, i64 0, i64 %63
  %65 = load ptr, ptr %64, align 8, !tbaa !77
  %66 = load i32, ptr %11, align 4, !tbaa !47
  %67 = load i32, ptr %19, align 4, !tbaa !47
  %68 = mul nsw i32 %67, 10
  %69 = add nsw i32 %66, %68
  %70 = load ptr, ptr %9, align 8, !tbaa !61
  %71 = getelementptr inbounds nuw %struct.AVFrame, ptr %70, i32 0, i32 1
  %72 = load i32, ptr %20, align 4, !tbaa !47
  %73 = sext i32 %72 to i64
  %74 = getelementptr inbounds [8 x i32], ptr %71, i64 0, i64 %73
  %75 = load i32, ptr %74, align 4, !tbaa !47
  %76 = mul nsw i32 %69, %75
  %77 = sext i32 %76 to i64
  %78 = getelementptr inbounds i8, ptr %65, i64 %77
  %79 = load i32, ptr %10, align 4, !tbaa !47
  %80 = sext i32 %79 to i64
  %81 = getelementptr inbounds i16, ptr %78, i64 %80
  store ptr %81, ptr %24, align 8, !tbaa !79
  store i32 128, ptr %22, align 4, !tbaa !47
  br label %82

82:                                               ; preds = %137, %59
  %83 = load i32, ptr %22, align 4, !tbaa !47
  %84 = icmp ne i32 %83, 0
  br i1 %84, label %85, label %140

85:                                               ; preds = %82
  %86 = load ptr, ptr %17, align 8, !tbaa !77
  %87 = load ptr, ptr %15, align 8, !tbaa !77
  %88 = load i32, ptr %19, align 4, !tbaa !47
  %89 = sext i32 %88 to i64
  %90 = getelementptr inbounds i8, ptr %87, i64 %89
  %91 = load i8, ptr %90, align 1, !tbaa !68
  %92 = sext i8 %91 to i32
  %93 = load i32, ptr %18, align 4, !tbaa !47
  %94 = mul nsw i32 %92, %93
  %95 = load i32, ptr %18, align 4, !tbaa !47
  %96 = add nsw i32 %94, %95
  %97 = sub nsw i32 %96, 1
  %98 = load i32, ptr %21, align 4, !tbaa !47
  %99 = sub nsw i32 %97, %98
  %100 = sext i32 %99 to i64
  %101 = getelementptr inbounds i8, ptr %86, i64 %100
  %102 = load i8, ptr %101, align 1, !tbaa !68
  %103 = zext i8 %102 to i32
  %104 = load i32, ptr %22, align 4, !tbaa !47
  %105 = and i32 %103, %104
  %106 = icmp ne i32 %105, 0
  br i1 %106, label %107, label %126

107:                                              ; preds = %85
  %108 = load ptr, ptr %24, align 8, !tbaa !79
  %109 = load i32, ptr %21, align 4, !tbaa !47
  %110 = sext i32 %109 to i64
  %111 = getelementptr inbounds i16, ptr %108, i64 %110
  %112 = load i16, ptr %111, align 2, !tbaa !81
  %113 = zext i16 %112 to i32
  %114 = sitofp i32 %113 to float
  %115 = load float, ptr %14, align 4, !tbaa !69
  %116 = load i32, ptr %23, align 4, !tbaa !47
  %117 = sitofp i32 %116 to float
  %118 = load float, ptr %13, align 4, !tbaa !69
  %119 = fmul nsz float %117, %118
  %120 = call nsz float @llvm.fmuladd.f32(float %114, float %115, float %119)
  %121 = fptoui float %120 to i16
  %122 = load ptr, ptr %24, align 8, !tbaa !79
  %123 = load i32, ptr %21, align 4, !tbaa !47
  %124 = sext i32 %123 to i64
  %125 = getelementptr inbounds i16, ptr %122, i64 %124
  store i16 %121, ptr %125, align 2, !tbaa !81
  br label %126

126:                                              ; preds = %107, %85
  %127 = load ptr, ptr %9, align 8, !tbaa !61
  %128 = getelementptr inbounds nuw %struct.AVFrame, ptr %127, i32 0, i32 1
  %129 = load i32, ptr %20, align 4, !tbaa !47
  %130 = sext i32 %129 to i64
  %131 = getelementptr inbounds [8 x i32], ptr %128, i64 0, i64 %130
  %132 = load i32, ptr %131, align 4, !tbaa !47
  %133 = sdiv i32 %132, 2
  %134 = load ptr, ptr %24, align 8, !tbaa !79
  %135 = sext i32 %133 to i64
  %136 = getelementptr inbounds i16, ptr %134, i64 %135
  store ptr %136, ptr %24, align 8, !tbaa !79
  br label %137

137:                                              ; preds = %126
  %138 = load i32, ptr %22, align 4, !tbaa !47
  %139 = ashr i32 %138, 1
  store i32 %139, ptr %22, align 4, !tbaa !47
  br label %82, !llvm.loop !206

140:                                              ; preds = %82
  call void @llvm.lifetime.end.p0(i64 8, ptr %24) #10
  br label %141

141:                                              ; preds = %140
  %142 = load i32, ptr %21, align 4, !tbaa !47
  %143 = add nsw i32 %142, 1
  store i32 %143, ptr %21, align 4, !tbaa !47
  br label %55, !llvm.loop !207

144:                                              ; preds = %55
  call void @llvm.lifetime.end.p0(i64 4, ptr %23) #10
  call void @llvm.lifetime.end.p0(i64 4, ptr %22) #10
  call void @llvm.lifetime.end.p0(i64 4, ptr %21) #10
  br label %145

145:                                              ; preds = %144
  %146 = load i32, ptr %19, align 4, !tbaa !47
  %147 = add nsw i32 %146, 1
  store i32 %147, ptr %19, align 4, !tbaa !47
  br label %39, !llvm.loop !208

148:                                              ; preds = %39
  br label %149

149:                                              ; preds = %148
  %150 = load i32, ptr %20, align 4, !tbaa !47
  %151 = add nsw i32 %150, 1
  store i32 %151, ptr %20, align 4, !tbaa !47
  br label %25, !llvm.loop !209

152:                                              ; preds = %36
  call void @llvm.lifetime.end.p0(i64 4, ptr %20) #10
  call void @llvm.lifetime.end.p0(i64 4, ptr %19) #10
  call void @llvm.lifetime.end.p0(i64 4, ptr %18) #10
  call void @llvm.lifetime.end.p0(i64 8, ptr %17) #10
  ret void
}