; Function Attrs: nofree norecurse nosync nounwind memory(readwrite, inaccessiblemem: none) uwtable
define internal void @draw_vtext16(ptr noundef readonly captures(none) %0, i32 noundef %1, i32 noundef %2, i32 noundef %3, float noundef %4, float noundef %5, ptr noundef readonly captures(none) %6, ptr noundef readonly captures(none) %7) #6 {
  %9 = getelementptr inbounds nuw i8, ptr %0, i64 64
  %10 = sext i32 %1 to i64
  %11 = sext i32 %2 to i64
  br label %12

12:                                               ; preds = %8, %._crit_edge
  %indvars.iv55 = phi i64 [ 0, %8 ], [ %indvars.iv.next56, %._crit_edge ]
  %13 = getelementptr inbounds nuw [8 x ptr], ptr %0, i64 0, i64 %indvars.iv55
  %14 = load ptr, ptr %13, align 8, !tbaa !71
  %.not = icmp eq ptr %14, null
  br i1 %.not, label %.critedge, label %.preheader

.preheader:                                       ; preds = %12
  %15 = load i8, ptr %6, align 1, !tbaa !62
  %.not4248 = icmp eq i8 %15, 0
  br i1 %.not4248, label %._crit_edge, label %.lr.ph

.lr.ph:                                           ; preds = %.preheader
  %16 = getelementptr inbounds nuw i8, ptr %7, i64 %indvars.iv55
  %17 = getelementptr inbounds nuw [8 x i32], ptr %9, i64 0, i64 %indvars.iv55
  %18 = load i32, ptr %17, align 4, !tbaa !44
  %invariant.gep = getelementptr i16, ptr %14, i64 %10
  %19 = sdiv i32 %18, 2
  %20 = sext i32 %19 to i64
  %21 = sext i32 %18 to i64
  br label %22

22:                                               ; preds = %.lr.ph, %54
  %indvars.iv52 = phi i64 [ 0, %.lr.ph ], [ %indvars.iv.next53, %54 ]
  %23 = getelementptr inbounds nuw i8, ptr %6, i64 %indvars.iv52
  %24 = load i8, ptr %16, align 1, !tbaa !62
  %25 = zext i8 %24 to i32
  %26 = mul nsw i32 %3, %25
  %27 = mul nuw nsw i64 %indvars.iv52, 10
  %28 = add nsw i64 %27, %11
  %29 = mul nsw i64 %28, %21
  %gep = getelementptr i8, ptr %invariant.gep, i64 %29
  %30 = sitofp i32 %26 to float
  %31 = fmul nsz float %4, %30
  br label %32

32:                                               ; preds = %22, %53
  %indvars.iv = phi i64 [ 0, %22 ], [ %indvars.iv.next, %53 ]
  %33 = trunc nuw nsw i64 %indvars.iv to i32
  br label %34

34:                                               ; preds = %32, %50
  %.046 = phi ptr [ %gep, %32 ], [ %51, %50 ]
  %.03945 = phi i32 [ 128, %32 ], [ %52, %50 ]
  %35 = load i8, ptr %23, align 1, !tbaa !62
  %36 = sext i8 %35 to i32
  %37 = shl nsw i32 %36, 3
  %reass.sub = sub i32 %37, %33
  %38 = add i32 %reass.sub, 7
  %39 = sext i32 %38 to i64
  %40 = getelementptr inbounds i8, ptr @avpriv_cga_font, i64 %39
  %41 = load i8, ptr %40, align 1, !tbaa !62
  %42 = zext i8 %41 to i32
  %43 = and i32 %.03945, %42
  %.not44 = icmp eq i32 %43, 0
  br i1 %.not44, label %50, label %44

44:                                               ; preds = %34
  %45 = getelementptr inbounds nuw i16, ptr %.046, i64 %indvars.iv
  %46 = load i16, ptr %45, align 2, !tbaa !72
  %47 = uitofp i16 %46 to float
  %48 = tail call nsz float @llvm.fmuladd.f32(float %47, float %5, float %31)
  %49 = fptoui float %48 to i16
  store i16 %49, ptr %45, align 2, !tbaa !72
  br label %50

50:                                               ; preds = %44, %34
  %51 = getelementptr inbounds i16, ptr %.046, i64 %20
  %52 = lshr i32 %.03945, 1
  %.not43 = icmp samesign ult i32 %.03945, 2
  br i1 %.not43, label %53, label %34, !llvm.loop !245

53:                                               ; preds = %50
  %indvars.iv.next = add nuw nsw i64 %indvars.iv, 1
  %exitcond.not = icmp eq i64 %indvars.iv.next, 8
  br i1 %exitcond.not, label %54, label %32, !llvm.loop !246

54:                                               ; preds = %53
  %indvars.iv.next53 = add nuw nsw i64 %indvars.iv52, 1
  %55 = getelementptr inbounds nuw i8, ptr %6, i64 %indvars.iv.next53
  %56 = load i8, ptr %55, align 1, !tbaa !62
  %.not42 = icmp eq i8 %56, 0
  br i1 %.not42, label %._crit_edge, label %22, !llvm.loop !247

._crit_edge:                                      ; preds = %54, %.preheader
  %indvars.iv.next56 = add nuw nsw i64 %indvars.iv55, 1
  %exitcond58.not = icmp eq i64 %indvars.iv.next56, 4
  br i1 %exitcond58.not, label %.critedge, label %12, !llvm.loop !248

.critedge:                                        ; preds = %._crit_edge, %12
  ret void
}